; ModuleID = '57/2139.c'
source_filename = "57/2139.c"
target datalayout = "e-m:e-p270:32:32-p271:32:32-p272:64:64-i64:64-f80:128-n8:16:32:64-S128"
target triple = "x86_64-pc-linux-gnu"

@__const.main.c = private unnamed_addr constant [3 x i32] [i32 2, i32 2, i32 3], align 4
@__const.main.b = private unnamed_addr constant [3 x [4 x i8]] [[4 x i8] c"er\00\00", [4 x i8] c"ly\00\00", [4 x i8] c"ing\00"], align 1
@.str = private unnamed_addr constant [3 x i8] c"%d\00", align 1
@.str.1 = private unnamed_addr constant [3 x i8] c"%s\00", align 1

; Function Attrs: noinline nounwind uwtable
define dso_local i32 @f(i8* %0, i32 %1, i8* %2, i32 %3) #0 {
  %5 = alloca i32, align 4
  %6 = alloca i8*, align 8
  %7 = alloca i32, align 4
  %8 = alloca i8*, align 8
  %9 = alloca i32, align 4
  %10 = alloca i32, align 4
  %11 = alloca i32, align 4
  store i8* %0, i8** %6, align 8
  store i32 %1, i32* %7, align 4
  store i8* %2, i8** %8, align 8
  store i32 %3, i32* %9, align 4
  %12 = load i32, i32* %7, align 4
  %13 = sub nsw i32 %12, 1
  store i32 %13, i32* %10, align 4
  %14 = load i32, i32* %9, align 4
  %15 = sub nsw i32 %14, 1
  store i32 %15, i32* %11, align 4
  %16 = load i32, i32* %7, align 4
  %17 = load i32, i32* %9, align 4
  %18 = icmp slt i32 %16, %17
  br i1 %18, label %19, label %20

19:                                               ; preds = %4
  store i32 0, i32* %5, align 4
  br label %50

20:                                               ; preds = %4
  br label %21

21:                                               ; preds = %40, %20
  %22 = load i32, i32* %11, align 4
  %23 = icmp sge i32 %22, 0
  br i1 %23, label %24, label %38

24:                                               ; preds = %21
  %25 = load i8*, i8** %6, align 8
  %26 = load i32, i32* %10, align 4
  %27 = sext i32 %26 to i64
  %28 = getelementptr inbounds i8, i8* %25, i64 %27
  %29 = load i8, i8* %28, align 1
  %30 = sext i8 %29 to i32
  %31 = load i8*, i8** %8, align 8
  %32 = load i32, i32* %11, align 4
  %33 = sext i32 %32 to i64
  %34 = getelementptr inbounds i8, i8* %31, i64 %33
  %35 = load i8, i8* %34, align 1
  %36 = sext i8 %35 to i32
  %37 = icmp eq i32 %30, %36
  br label %38

38:                                               ; preds = %24, %21
  %39 = phi i1 [ false, %21 ], [ %37, %24 ]
  br i1 %39, label %40, label %45

40:                                               ; preds = %38
  %41 = load i32, i32* %10, align 4
  %42 = add nsw i32 %41, -1
  store i32 %42, i32* %10, align 4
  %43 = load i32, i32* %11, align 4
  %44 = add nsw i32 %43, -1
  store i32 %44, i32* %11, align 4
  br label %21

45:                                               ; preds = %38
  %46 = load i32, i32* %11, align 4
  %47 = icmp slt i32 %46, 0
  br i1 %47, label %48, label %49

48:                                               ; preds = %45
  store i32 1, i32* %5, align 4
  br label %50

49:                                               ; preds = %45
  store i32 0, i32* %5, align 4
  br label %50

50:                                               ; preds = %49, %48, %19
  %51 = load i32, i32* %5, align 4
  ret i32 %51
}

; Function Attrs: noinline nounwind uwtable
define dso_local void @g(i8* %0, i32 %1, i32 %2) #0 {
  %4 = alloca i8*, align 8
  %5 = alloca i32, align 4
  %6 = alloca i32, align 4
  store i8* %0, i8** %4, align 8
  store i32 %1, i32* %5, align 4
  store i32 %2, i32* %6, align 4
  %7 = load i8*, i8** %4, align 8
  %8 = load i32, i32* %5, align 4
  %9 = load i32, i32* %6, align 4
  %10 = sub nsw i32 %8, %9
  %11 = sext i32 %10 to i64
  %12 = getelementptr inbounds i8, i8* %7, i64 %11
  store i8 0, i8* %12, align 1
  ret void
}

; Function Attrs: noinline nounwind uwtable
define dso_local void @main() #0 {
  %1 = alloca i32, align 4
  %2 = alloca i32, align 4
  %3 = alloca i32, align 4
  %4 = alloca i32, align 4
  %5 = alloca i32, align 4
  %6 = alloca [3 x i32], align 4
  %7 = alloca [33 x i8], align 16
  %8 = alloca [3 x [4 x i8]], align 1
  %9 = bitcast [3 x i32]* %6 to i8*
  call void @llvm.memcpy.p0i8.p0i8.i64(i8* align 4 %9, i8* align 4 bitcast ([3 x i32]* @__const.main.c to i8*), i64 12, i1 false)
  %10 = bitcast [3 x [4 x i8]]* %8 to i8*
  call void @llvm.memcpy.p0i8.p0i8.i64(i8* align 1 %10, i8* align 1 getelementptr inbounds ([3 x [4 x i8]], [3 x [4 x i8]]* @__const.main.b, i32 0, i32 0, i32 0), i64 12, i1 false)
  %11 = call i32 (i8*, ...) @__isoc99_scanf(i8* getelementptr inbounds ([3 x i8], [3 x i8]* @.str, i64 0, i64 0), i32* %1)
  %12 = call i32 @getchar()
  store i32 0, i32* %2, align 4
  br label %13

13:                                               ; preds = %57, %0
  %14 = load i32, i32* %2, align 4
  %15 = load i32, i32* %1, align 4
  %16 = icmp slt i32 %14, %15
  br i1 %16, label %17, label %60

17:                                               ; preds = %13
  %18 = getelementptr inbounds [33 x i8], [33 x i8]* %7, i64 0, i64 0
  %19 = call i32 (i8*, ...) @__isoc99_scanf(i8* getelementptr inbounds ([3 x i8], [3 x i8]* @.str.1, i64 0, i64 0), i8* %18)
  %20 = getelementptr inbounds [33 x i8], [33 x i8]* %7, i64 0, i64 0
  %21 = call i64 @strlen(i8* %20) #4
  %22 = trunc i64 %21 to i32
  store i32 %22, i32* %4, align 4
  store i32 0, i32* %5, align 4
  br label %23

23:                                               ; preds = %41, %17
  %24 = load i32, i32* %5, align 4
  %25 = icmp slt i32 %24, 3
  br i1 %25, label %26, label %39

26:                                               ; preds = %23
  %27 = getelementptr inbounds [33 x i8], [33 x i8]* %7, i64 0, i64 0
  %28 = load i32, i32* %4, align 4
  %29 = load i32, i32* %5, align 4
  %30 = sext i32 %29 to i64
  %31 = getelementptr inbounds [3 x [4 x i8]], [3 x [4 x i8]]* %8, i64 0, i64 %30
  %32 = getelementptr inbounds [4 x i8], [4 x i8]* %31, i64 0, i64 0
  %33 = load i32, i32* %5, align 4
  %34 = sext i32 %33 to i64
  %35 = getelementptr inbounds [3 x i32], [3 x i32]* %6, i64 0, i64 %34
  %36 = load i32, i32* %35, align 4
  %37 = call i32 @f(i8* %27, i32 %28, i8* %32, i32 %36)
  %38 = icmp eq i32 %37, 0
  br label %39

39:                                               ; preds = %26, %23
  %40 = phi i1 [ false, %23 ], [ %38, %26 ]
  br i1 %40, label %41, label %44

41:                                               ; preds = %39
  %42 = load i32, i32* %5, align 4
  %43 = add nsw i32 %42, 1
  store i32 %43, i32* %5, align 4
  br label %23

44:                                               ; preds = %39
  %45 = load i32, i32* %5, align 4
  %46 = icmp slt i32 %45, 3
  br i1 %46, label %47, label %54

47:                                               ; preds = %44
  %48 = getelementptr inbounds [33 x i8], [33 x i8]* %7, i64 0, i64 0
  %49 = load i32, i32* %4, align 4
  %50 = load i32, i32* %5, align 4
  %51 = sext i32 %50 to i64
  %52 = getelementptr inbounds [3 x i32], [3 x i32]* %6, i64 0, i64 %51
  %53 = load i32, i32* %52, align 4
  call void @g(i8* %48, i32 %49, i32 %53)
  br label %54

54:                                               ; preds = %47, %44
  %55 = getelementptr inbounds [33 x i8], [33 x i8]* %7, i64 0, i64 0
  %56 = call i32 @puts(i8* %55)
  br label %57

57:                                               ; preds = %54
  %58 = load i32, i32* %2, align 4
  %59 = add nsw i32 %58, 1
  store i32 %59, i32* %2, align 4
  br label %13

60:                                               ; preds = %13
  ret void
}

; Function Attrs: argmemonly nounwind willreturn
declare void @llvm.memcpy.p0i8.p0i8.i64(i8* noalias nocapture writeonly, i8* noalias nocapture readonly, i64, i1 immarg) #1

declare dso_local i32 @__isoc99_scanf(i8*, ...) #2

declare dso_local i32 @getchar() #2

; Function Attrs: nounwind readonly
declare dso_local i64 @strlen(i8*) #3

declare dso_local i32 @puts(i8*) #2


!llvm.module.flags = !{!0}
!llvm.ident = !{!1}

!0 = !{i32 1, !"wchar_size", i32 4}
!1 = !{!"clang version 10.0.0-4ubuntu1 "}
